target datalayout = "e-m:e-p270:32:32-p271:32:32-p272:64:64-i64:64-i128:128-f80:128-n8:16:32:64-S128"
target triple = "x86_64-pc-linux-gnu"

%struct._value_string_ext = type { ptr, i32, i32, ptr, ptr }
%struct._e_guid_t = type { i32, i16, i16, [8 x i8] }
%struct.nstime_t = type { i64, i32 }
%struct._packet_info = type { ptr, ptr, i32, i32, %struct.nstime_t, %struct.nstime_t, %struct.nstime_t, i8, ptr, ptr, ptr, ptr, %struct._address, %struct._address, %struct._address, %struct._address, %struct._address, %struct._address, i32, ptr, i8, [3 x i8], %struct.anon, i32, i32, i32, i32, ptr, i8, ptr, ptr, i16, i16, i32, i32, i16, i32, i32, ptr, ptr, ptr, i8, i8, i16, i16, i16, i32, i16, i16, ptr, ptr, ptr, ptr, ptr, i32, i32 }
%struct._address = type { i32, i32, ptr, ptr }
%struct.anon = type { i8, [3 x i8] }
%struct._smb2_info_t = type { i16, i32, i32, i32, i64, i64, i32, ptr, ptr, ptr, ptr, ptr, ptr, ptr }
%struct._smb2_saved_info_t = type { i8, i8, i64, i32, i32, %struct.nstime_t, ptr, ptr, ptr, %struct._e_ctx_hnd, ptr, i64, i32, ptr, i32, i32, i16, ptr, %struct._e_guid_t, i32, i32, ptr }
%struct._e_ctx_hnd = type { i32, %struct._e_guid_t }
%struct._proto_node = type { ptr, ptr, ptr, ptr, ptr, ptr, ptr }
%struct.field_info = type { ptr, i32, i32, i32, i32, i32, i32, ptr, ptr, ptr, i32, i32 }

@hf_smb2_class = internal global i32 0, align 4
@hf_smb2_infolevel = internal global i32 0, align 4
@hf_smb2_infolevel_file_info = internal global i32 0, align 4
@smb2_file_info_levels_ext = internal global %struct._value_string_ext { ptr @_try_val_to_str_ext_init, i32 0, i32 47, ptr @smb2_file_info_levels, ptr @.str.1867 }, align 8
@hf_smb2_infolevel_fs_info = internal global i32 0, align 4
@smb2_fs_info_levels_ext = internal global %struct._value_string_ext { ptr @_try_val_to_str_ext_init, i32 0, i32 12, ptr @smb2_fs_info_levels, ptr @.str.1894 }, align 8
@hf_smb2_infolevel_sec_info = internal global i32 0, align 4
@smb2_sec_info_levels_ext = internal global %struct._value_string_ext { ptr @_try_val_to_str_ext_init, i32 0, i32 1, ptr @smb2_sec_info_levels, ptr @.str.1901 }, align 8
@.str.2269 = private unnamed_addr constant [15 x i8] c"(Level:0x%02x)\00", align 1
@.str.2274 = private unnamed_addr constant [7 x i8] c" %s/%s\00", align 1
@.str.2275 = private unnamed_addr constant [15 x i8] c"(Class:0x%02x)\00", align 1

; Function Attrs: inlinehint nounwind null_pointer_is_valid sspstrong uwtable
define internal void @proto_item_set_generated(ptr noundef %0) #4 {
  %2 = alloca ptr, align 8
  store ptr %0, ptr %2, align 8
  %3 = load ptr, ptr %2, align 8
  %4 = icmp ne ptr %3, null
  br i1 %4, label %5, label %24

5:                                                ; preds = %1
  br label %6

6:                                                ; preds = %5
  %7 = load ptr, ptr %2, align 8
  %8 = getelementptr inbounds nuw %struct._proto_node, ptr %7, i32 0, i32 5
  %9 = load ptr, ptr %8, align 8
  %10 = icmp ne ptr %9, null
  br i1 %10, label %11, label %22

11:                                               ; preds = %6
  %12 = load ptr, ptr %2, align 8
  %13 = getelementptr inbounds nuw %struct._proto_node, ptr %12, i32 0, i32 5
  %14 = load ptr, ptr %13, align 8
  %15 = getelementptr inbounds nuw %struct.field_info, ptr %14, i32 0, i32 6
  %16 = load i32, ptr %15, align 4
  %17 = or i32 %16, 2
  %18 = load ptr, ptr %2, align 8
  %19 = getelementptr inbounds nuw %struct._proto_node, ptr %18, i32 0, i32 5
  %20 = load ptr, ptr %19, align 8
  %21 = getelementptr inbounds nuw %struct.field_info, ptr %20, i32 0, i32 6
  store i32 %17, ptr %21, align 4
  br label %22

22:                                               ; preds = %11, %6
  br label %23

23:                                               ; preds = %22
  br label %24

24:                                               ; preds = %23, %1
  ret void
}

; Function Attrs: null_pointer_is_valid sspstrong uwtable
define internal i32 @dissect_smb2_class_infolevel(ptr noundef %0, ptr noundef %1, i32 noundef %2, ptr noundef %3, ptr noundef %4) #0 {
  %6 = alloca i32, align 4
  %7 = alloca ptr, align 8
  %8 = alloca ptr, align 8
  %9 = alloca i32, align 4
  %10 = alloca ptr, align 8
  %11 = alloca ptr, align 8
  %12 = alloca i8, align 1
  %13 = alloca i8, align 1
  %14 = alloca ptr, align 8
  %15 = alloca i32, align 4
  %16 = alloca ptr, align 8
  %17 = alloca i32, align 4
  store ptr %0, ptr %7, align 8
  store ptr %1, ptr %8, align 8
  store i32 %2, ptr %9, align 4
  store ptr %3, ptr %10, align 8
  store ptr %4, ptr %11, align 8
  call void @llvm.lifetime.start.p0(i64 1, ptr %12) #13
  call void @llvm.lifetime.start.p0(i64 1, ptr %13) #13
  call void @llvm.lifetime.start.p0(i64 8, ptr %14) #13
  call void @llvm.lifetime.start.p0(i64 4, ptr %15) #13
  call void @llvm.lifetime.start.p0(i64 8, ptr %16) #13
  %18 = load ptr, ptr %11, align 8
  %19 = getelementptr inbounds nuw %struct._smb2_info_t, ptr %18, i32 0, i32 6
  %20 = load i32, ptr %19, align 8
  %21 = and i32 %20, 1
  %22 = icmp ne i32 %21, 0
  br i1 %22, label %23, label %41

23:                                               ; preds = %5
  %24 = load ptr, ptr %11, align 8
  %25 = getelementptr inbounds nuw %struct._smb2_info_t, ptr %24, i32 0, i32 9
  %26 = load ptr, ptr %25, align 8
  %27 = icmp ne ptr %26, null
  br i1 %27, label %30, label %28

28:                                               ; preds = %23
  %29 = load i32, ptr %9, align 4
  store i32 %29, ptr %6, align 4
  store i32 1, ptr %17, align 4
  br label %130

30:                                               ; preds = %23
  %31 = load ptr, ptr %11, align 8
  %32 = getelementptr inbounds nuw %struct._smb2_info_t, ptr %31, i32 0, i32 9
  %33 = load ptr, ptr %32, align 8
  %34 = getelementptr inbounds nuw %struct._smb2_saved_info_t, ptr %33, i32 0, i32 0
  %35 = load i8, ptr %34, align 8
  store i8 %35, ptr %12, align 1
  %36 = load ptr, ptr %11, align 8
  %37 = getelementptr inbounds nuw %struct._smb2_info_t, ptr %36, i32 0, i32 9
  %38 = load ptr, ptr %37, align 8
  %39 = getelementptr inbounds nuw %struct._smb2_saved_info_t, ptr %38, i32 0, i32 1
  %40 = load i8, ptr %39, align 1
  store i8 %40, ptr %13, align 1
  br label %65

41:                                               ; preds = %5
  %42 = load ptr, ptr %8, align 8
  %43 = load i32, ptr %9, align 4
  %44 = call zeroext i8 @tvb_get_uint8(ptr noundef %42, i32 noundef %43)
  store i8 %44, ptr %12, align 1
  %45 = load ptr, ptr %8, align 8
  %46 = load i32, ptr %9, align 4
  %47 = add i32 %46, 1
  %48 = call zeroext i8 @tvb_get_uint8(ptr noundef %45, i32 noundef %47)
  store i8 %48, ptr %13, align 1
  %49 = load ptr, ptr %11, align 8
  %50 = getelementptr inbounds nuw %struct._smb2_info_t, ptr %49, i32 0, i32 9
  %51 = load ptr, ptr %50, align 8
  %52 = icmp ne ptr %51, null
  br i1 %52, label %53, label %64

53:                                               ; preds = %41
  %54 = load i8, ptr %12, align 1
  %55 = load ptr, ptr %11, align 8
  %56 = getelementptr inbounds nuw %struct._smb2_info_t, ptr %55, i32 0, i32 9
  %57 = load ptr, ptr %56, align 8
  %58 = getelementptr inbounds nuw %struct._smb2_saved_info_t, ptr %57, i32 0, i32 0
  store i8 %54, ptr %58, align 8
  %59 = load i8, ptr %13, align 1
  %60 = load ptr, ptr %11, align 8
  %61 = getelementptr inbounds nuw %struct._smb2_info_t, ptr %60, i32 0, i32 9
  %62 = load ptr, ptr %61, align 8
  %63 = getelementptr inbounds nuw %struct._smb2_saved_info_t, ptr %62, i32 0, i32 1
  store i8 %59, ptr %63, align 1
  br label %64

64:                                               ; preds = %53, %41
  br label %65

65:                                               ; preds = %64, %30
  %66 = load i8, ptr %12, align 1
  %67 = zext i8 %66 to i32
  switch i32 %67, label %76 [
    i32 1, label %68
    i32 2, label %70
    i32 3, label %72
    i32 4, label %74
  ]

68:                                               ; preds = %65
  %69 = load i32, ptr @hf_smb2_infolevel_file_info, align 4
  store i32 %69, ptr %15, align 4
  store ptr @smb2_file_info_levels_ext, ptr %16, align 8
  br label %78

70:                                               ; preds = %65
  %71 = load i32, ptr @hf_smb2_infolevel_fs_info, align 4
  store i32 %71, ptr %15, align 4
  store ptr @smb2_fs_info_levels_ext, ptr %16, align 8
  br label %78

72:                                               ; preds = %65
  %73 = load i32, ptr @hf_smb2_infolevel_sec_info, align 4
  store i32 %73, ptr %15, align 4
  store ptr @smb2_sec_info_levels_ext, ptr %16, align 8
  br label %78

74:                                               ; preds = %65
  %75 = load i32, ptr @hf_smb2_infolevel, align 4
  store i32 %75, ptr %15, align 4
  store ptr null, ptr %16, align 8
  br label %78

76:                                               ; preds = %65
  %77 = load i32, ptr @hf_smb2_infolevel, align 4
  store i32 %77, ptr %15, align 4
  store ptr null, ptr %16, align 8
  br label %78

78:                                               ; preds = %76, %74, %72, %70, %68
  %79 = load ptr, ptr %10, align 8
  %80 = load i32, ptr @hf_smb2_class, align 4
  %81 = load ptr, ptr %8, align 8
  %82 = load i32, ptr %9, align 4
  %83 = load i8, ptr %12, align 1
  %84 = zext i8 %83 to i32
  %85 = call ptr @proto_tree_add_uint(ptr noundef %79, i32 noundef %80, ptr noundef %81, i32 noundef %82, i32 noundef 1, i32 noundef %84)
  store ptr %85, ptr %14, align 8
  %86 = load ptr, ptr %11, align 8
  %87 = getelementptr inbounds nuw %struct._smb2_info_t, ptr %86, i32 0, i32 6
  %88 = load i32, ptr %87, align 8
  %89 = and i32 %88, 1
  %90 = icmp ne i32 %89, 0
  br i1 %90, label %91, label %93

91:                                               ; preds = %78
  %92 = load ptr, ptr %14, align 8
  call void @proto_item_set_generated(ptr noundef %92)
  br label %93

93:                                               ; preds = %91, %78
  %94 = load ptr, ptr %10, align 8
  %95 = load i32, ptr %15, align 4
  %96 = load ptr, ptr %8, align 8
  %97 = load i32, ptr %9, align 4
  %98 = add i32 %97, 1
  %99 = load i8, ptr %13, align 1
  %100 = zext i8 %99 to i32
  %101 = call ptr @proto_tree_add_uint(ptr noundef %94, i32 noundef %95, ptr noundef %96, i32 noundef %98, i32 noundef 1, i32 noundef %100)
  store ptr %101, ptr %14, align 8
  %102 = load ptr, ptr %11, align 8
  %103 = getelementptr inbounds nuw %struct._smb2_info_t, ptr %102, i32 0, i32 6
  %104 = load i32, ptr %103, align 8
  %105 = and i32 %104, 1
  %106 = icmp ne i32 %105, 0
  br i1 %106, label %107, label %109

107:                                              ; preds = %93
  %108 = load ptr, ptr %14, align 8
  call void @proto_item_set_generated(ptr noundef %108)
  br label %109

109:                                              ; preds = %107, %93
  %110 = load i32, ptr %9, align 4
  %111 = add i32 %110, 2
  store i32 %111, ptr %9, align 4
  %112 = load ptr, ptr %11, align 8
  %113 = getelementptr inbounds nuw %struct._smb2_info_t, ptr %112, i32 0, i32 6
  %114 = load i32, ptr %113, align 8
  %115 = and i32 %114, 1
  %116 = icmp ne i32 %115, 0
  br i1 %116, label %128, label %117

117:                                              ; preds = %109
  %118 = load ptr, ptr %7, align 8
  %119 = getelementptr inbounds nuw %struct._packet_info, ptr %118, i32 0, i32 1
  %120 = load ptr, ptr %119, align 8
  %121 = load i8, ptr %12, align 1
  %122 = zext i8 %121 to i32
  %123 = call ptr @val_to_str(i32 noundef %122, ptr noundef @smb2_class_vals, ptr noundef @.str.2275)
  %124 = load i8, ptr %13, align 1
  %125 = zext i8 %124 to i32
  %126 = load ptr, ptr %16, align 8
  %127 = call ptr @val_to_str_ext(i32 noundef %125, ptr noundef %126, ptr noundef @.str.2269)
  call void (ptr, i32, ptr, ...) @col_append_fstr(ptr noundef %120, i32 noundef 25, ptr noundef @.str.2274, ptr noundef %123, ptr noundef %127)
  br label %128

128:                                              ; preds = %117, %109
  %129 = load i32, ptr %9, align 4
  store i32 %129, ptr %6, align 4
  store i32 1, ptr %17, align 4
  br label %130

130:                                              ; preds = %128, %28
  call void @llvm.lifetime.end.p0(i64 8, ptr %16) #13
  call void @llvm.lifetime.end.p0(i64 4, ptr %15) #13
  call void @llvm.lifetime.end.p0(i64 8, ptr %14) #13
  call void @llvm.lifetime.end.p0(i64 1, ptr %13) #13
  call void @llvm.lifetime.end.p0(i64 1, ptr %12) #13
  %131 = load i32, ptr %6, align 4
  ret i32 %131
}