; Function Attrs: null_pointer_is_valid sspstrong uwtable
define internal fastcc noundef i32 @dissect_smb2_class_infolevel(ptr noundef readonly captures(none) %0, ptr noundef %1, i32 noundef %2, ptr noundef %3, ptr noundef readonly captures(none) %4) unnamed_addr #0 {
  %6 = getelementptr inbounds nuw i8, ptr %4, i64 32
  %7 = load i32, ptr %6, align 8
  %8 = and i32 %7, 1
  %.not = icmp eq i32 %8, 0
  br i1 %.not, label %16, label %9

9:                                                ; preds = %5
  %10 = getelementptr inbounds nuw i8, ptr %4, i64 56
  %11 = load ptr, ptr %10, align 8
  %.not42 = icmp eq ptr %11, null
  br i1 %.not42, label %62, label %12

12:                                               ; preds = %9
  %13 = load i8, ptr %11, align 8
  %14 = getelementptr inbounds nuw i8, ptr %11, i64 1
  %15 = load i8, ptr %14, align 1
  br label %25

16:                                               ; preds = %5
  %17 = tail call zeroext i8 @tvb_get_uint8(ptr noundef %1, i32 noundef %2)
  %18 = add i32 %2, 1
  %19 = tail call zeroext i8 @tvb_get_uint8(ptr noundef %1, i32 noundef %18)
  %20 = getelementptr inbounds nuw i8, ptr %4, i64 56
  %21 = load ptr, ptr %20, align 8
  %.not41 = icmp eq ptr %21, null
  br i1 %.not41, label %25, label %22

22:                                               ; preds = %16
  store i8 %17, ptr %21, align 8
  %23 = load ptr, ptr %20, align 8
  %24 = getelementptr inbounds nuw i8, ptr %23, i64 1
  store i8 %19, ptr %24, align 1
  br label %25

25:                                               ; preds = %16, %22, %12
  %.037 = phi i8 [ %13, %12 ], [ %17, %22 ], [ %17, %16 ]
  %.036 = phi i8 [ %15, %12 ], [ %19, %22 ], [ %19, %16 ]
  %26 = zext i8 %.037 to i32
  %switch.tableidx = add i8 %.037, -1
  %27 = icmp ult i8 %switch.tableidx, 3
  br i1 %27, label %switch.lookup, label %30

switch.lookup:                                    ; preds = %25
  %28 = zext nneg i8 %switch.tableidx to i64
  %switch.gep = getelementptr inbounds nuw [3 x ptr], ptr @switch.table.dissect_smb2_class_infolevel, i64 0, i64 %28
  %switch.load = load ptr, ptr %switch.gep, align 8
  %29 = zext nneg i8 %switch.tableidx to i64
  %switch.gep50 = getelementptr inbounds nuw [3 x ptr], ptr @switch.table.dissect_smb2_class_infolevel.68, i64 0, i64 %29
  %switch.load51 = load ptr, ptr %switch.gep50, align 8
  br label %30

30:                                               ; preds = %25, %switch.lookup
  %.035.in = phi ptr [ %switch.load, %switch.lookup ], [ @hf_smb2_infolevel, %25 ]
  %.0 = phi ptr [ %switch.load51, %switch.lookup ], [ null, %25 ]
  %.035 = load i32, ptr %.035.in, align 4
  %31 = load i32, ptr @hf_smb2_class, align 4
  %32 = tail call ptr @proto_tree_add_uint(ptr noundef %3, i32 noundef %31, ptr noundef %1, i32 noundef %2, i32 noundef 1, i32 noundef %26)
  %33 = load i32, ptr %6, align 8
  %34 = and i32 %33, 1
  %.not43 = icmp eq i32 %34, 0
  %.not.i = icmp eq ptr %32, null
  %or.cond = select i1 %.not43, i1 true, i1 %.not.i
  br i1 %or.cond, label %proto_item_set_generated.exit, label %35

35:                                               ; preds = %30
  %36 = getelementptr inbounds nuw i8, ptr %32, i64 40
  %37 = load ptr, ptr %36, align 8
  %.not5.i = icmp eq ptr %37, null
  br i1 %.not5.i, label %proto_item_set_generated.exit, label %38

38:                                               ; preds = %35
  %39 = getelementptr inbounds nuw i8, ptr %37, i64 28
  %40 = load i32, ptr %39, align 4
  %41 = or i32 %40, 2
  store i32 %41, ptr %39, align 4
  br label %proto_item_set_generated.exit

proto_item_set_generated.exit:                    ; preds = %38, %35, %30
  %42 = add i32 %2, 1
  %43 = zext i8 %.036 to i32
  %44 = tail call ptr @proto_tree_add_uint(ptr noundef %3, i32 noundef %.035, ptr noundef %1, i32 noundef %42, i32 noundef 1, i32 noundef %43)
  %45 = load i32, ptr %6, align 8
  %46 = and i32 %45, 1
  %.not44 = icmp eq i32 %46, 0
  %.not.i46 = icmp eq ptr %44, null
  %or.cond49 = select i1 %.not44, i1 true, i1 %.not.i46
  br i1 %or.cond49, label %proto_item_set_generated.exit48, label %47

47:                                               ; preds = %proto_item_set_generated.exit
  %48 = getelementptr inbounds nuw i8, ptr %44, i64 40
  %49 = load ptr, ptr %48, align 8
  %.not5.i47 = icmp eq ptr %49, null
  br i1 %.not5.i47, label %proto_item_set_generated.exit48, label %50

50:                                               ; preds = %47
  %51 = getelementptr inbounds nuw i8, ptr %49, i64 28
  %52 = load i32, ptr %51, align 4
  %53 = or i32 %52, 2
  store i32 %53, ptr %51, align 4
  %.pre = load i32, ptr %6, align 8
  br label %proto_item_set_generated.exit48

proto_item_set_generated.exit48:                  ; preds = %50, %47, %proto_item_set_generated.exit
  %54 = phi i32 [ %.pre, %50 ], [ %45, %47 ], [ %45, %proto_item_set_generated.exit ]
  %55 = add i32 %2, 2
  %56 = and i32 %54, 1
  %.not45 = icmp eq i32 %56, 0
  br i1 %.not45, label %57, label %62

57:                                               ; preds = %proto_item_set_generated.exit48
  %58 = getelementptr inbounds nuw i8, ptr %0, i64 8
  %59 = load ptr, ptr %58, align 8
  %60 = tail call ptr @val_to_str(i32 noundef %26, ptr noundef nonnull @smb2_class_vals, ptr noundef nonnull @.str.2275)
  %61 = tail call ptr @val_to_str_ext(i32 noundef %43, ptr noundef %.0, ptr noundef nonnull @.str.2269)
  tail call void (ptr, i32, ptr, ...) @col_append_fstr(ptr noundef %59, i32 noundef 25, ptr noundef nonnull @.str.2274, ptr noundef %60, ptr noundef %61)
  br label %62

62:                                               ; preds = %proto_item_set_generated.exit48, %57, %9
  %.038 = phi i32 [ %2, %9 ], [ %55, %57 ], [ %55, %proto_item_set_generated.exit48 ]
  ret i32 %.038
}